target datalayout = "e-m:e-p270:32:32-p271:32:32-p272:64:64-i64:64-i128:128-f80:128-n8:16:32:64-S128"
target triple = "x86_64-pc-linux-gnu"

%struct.bin_s = type { %struct.malloc_mutex_s, %struct.bin_stats_s, ptr, %struct.edata_heap_t, %struct.edata_list_active_t }
%struct.malloc_mutex_s = type { %union.anon }
%union.anon = type { %struct.anon }
%struct.anon = type { %struct.mutex_prof_data_t, %struct.atomic_b_t, %union.pthread_mutex_t }
%struct.mutex_prof_data_t = type { %struct.nstime_t, %struct.nstime_t, i64, i64, i32, %struct.atomic_u32_t, i64, ptr, i64 }
%struct.nstime_t = type { i64 }
%struct.atomic_u32_t = type { i32 }
%struct.atomic_b_t = type { i8 }
%union.pthread_mutex_t = type { %struct.__pthread_mutex_s }
%struct.__pthread_mutex_s = type { i32, i32, i32, i32, i32, i16, i16, %struct.__pthread_internal_list }
%struct.__pthread_internal_list = type { ptr, ptr }
%struct.bin_stats_s = type { i64, i64, i64, i64, i64, i64, i64, i64, i64, i64, i64, i64, i64, i64 }
%struct.edata_heap_t = type { %struct.ph_s }
%struct.ph_s = type { ptr, i64 }
%struct.edata_list_active_t = type { %struct.anon.1 }
%struct.anon.1 = type { ptr }
%struct.bin_with_batch_s = type { %struct.bin_s, %struct.batcher_s, [16 x %struct.bin_remote_free_data_s] }
%struct.batcher_s = type { %struct.atomic_zu_t, i64, i64, %struct.malloc_mutex_s }
%struct.atomic_zu_t = type { i64 }
%struct.bin_remote_free_data_s = type { ptr, ptr }

; Function Attrs: nounwind uwtable
define hidden void @je_bin_postfork_child(ptr noundef %0, ptr noundef %1, i1 noundef zeroext %2) #0 {
  %4 = alloca ptr, align 8
  %5 = alloca ptr, align 8
  %6 = alloca i8, align 1
  %7 = alloca ptr, align 8
  store ptr %0, ptr %4, align 8, !tbaa !31
  store ptr %1, ptr %5, align 8, !tbaa !16
  %8 = zext i1 %2 to i8
  store i8 %8, ptr %6, align 1, !tbaa !33
  %9 = load ptr, ptr %4, align 8, !tbaa !31
  %10 = load ptr, ptr %5, align 8, !tbaa !16
  %11 = getelementptr inbounds nuw %struct.bin_s, ptr %10, i32 0, i32 0
  call void @je_malloc_mutex_postfork_child(ptr noundef %9, ptr noundef %11)
  %12 = load i8, ptr %6, align 1, !tbaa !33, !range !35, !noundef !36
  %13 = trunc i8 %12 to i1
  br i1 %13, label %14, label %18

14:                                               ; preds = %3
  call void @llvm.lifetime.start.p0(i64 8, ptr %7) #9
  %15 = load ptr, ptr %5, align 8, !tbaa !16
  store ptr %15, ptr %7, align 8, !tbaa !27
  %16 = load ptr, ptr %7, align 8, !tbaa !27
  %17 = getelementptr inbounds nuw %struct.bin_with_batch_s, ptr %16, i32 0, i32 1
  call void @je_batcher_postfork_child(ptr noundef null, ptr noundef %17)
  call void @llvm.lifetime.end.p0(i64 8, ptr %7) #9
  br label %18

18:                                               ; preds = %14, %3
  ret void
}